target datalayout = "e-m:e-p270:32:32-p271:32:32-p272:64:64-i64:64-i128:128-f80:128-n8:16:32:64-S128"
target triple = "x86_64-pc-linux-gnu"

%struct.IspellDict = type { i32, i32, ptr, ptr, ptr, ptr, ptr, i32, i32, i8, ptr, i8, i32, ptr, i32, i32, ptr, ptr, i32, i32, ptr, i64 }
%struct.aff_struct = type { ptr, i32, ptr, ptr, %union.anon.0 }
%union.anon.0 = type { %struct.Regis }
%struct.Regis = type { ptr, i32 }
%struct.AffixNode = type { i32, [0 x %struct.AffixNodeData] }
%struct.AffixNodeData = type { i32, ptr, ptr }

; Function Attrs: nounwind uwtable
define internal ptr @compact_palloc0(ptr noundef %0, i64 noundef %1) #0 {
  %3 = alloca ptr, align 8
  %4 = alloca ptr, align 8
  %5 = alloca i64, align 8
  %6 = alloca ptr, align 8
  %7 = alloca i32, align 4
  store ptr %0, ptr %4, align 8
  store i64 %1, ptr %5, align 8
  call void @llvm.lifetime.start.p0(i64 8, ptr %6) #11
  %8 = load i64, ptr %5, align 8
  %9 = icmp ugt i64 %8, 1024
  br i1 %9, label %10, label %13

10:                                               ; preds = %2
  %11 = load i64, ptr %5, align 8
  %12 = call ptr @palloc0(i64 noundef %11)
  store ptr %12, ptr %3, align 8
  store i32 1, ptr %7, align 4
  br label %43

13:                                               ; preds = %2
  %14 = load i64, ptr %5, align 8
  %15 = add i64 %14, 7
  %16 = and i64 %15, -8
  store i64 %16, ptr %5, align 8
  %17 = load i64, ptr %5, align 8
  %18 = load ptr, ptr %4, align 8
  %19 = getelementptr inbounds nuw %struct.IspellDict, ptr %18, i32 0, i32 21
  %20 = load i64, ptr %19, align 8
  %21 = icmp ugt i64 %17, %20
  br i1 %21, label %22, label %28

22:                                               ; preds = %13
  %23 = call ptr @palloc0(i64 noundef 8192)
  %24 = load ptr, ptr %4, align 8
  %25 = getelementptr inbounds nuw %struct.IspellDict, ptr %24, i32 0, i32 20
  store ptr %23, ptr %25, align 8
  %26 = load ptr, ptr %4, align 8
  %27 = getelementptr inbounds nuw %struct.IspellDict, ptr %26, i32 0, i32 21
  store i64 8192, ptr %27, align 8
  br label %28

28:                                               ; preds = %22, %13
  %29 = load ptr, ptr %4, align 8
  %30 = getelementptr inbounds nuw %struct.IspellDict, ptr %29, i32 0, i32 20
  %31 = load ptr, ptr %30, align 8
  store ptr %31, ptr %6, align 8
  %32 = load i64, ptr %5, align 8
  %33 = load ptr, ptr %4, align 8
  %34 = getelementptr inbounds nuw %struct.IspellDict, ptr %33, i32 0, i32 20
  %35 = load ptr, ptr %34, align 8
  %36 = getelementptr inbounds nuw i8, ptr %35, i64 %32
  store ptr %36, ptr %34, align 8
  %37 = load i64, ptr %5, align 8
  %38 = load ptr, ptr %4, align 8
  %39 = getelementptr inbounds nuw %struct.IspellDict, ptr %38, i32 0, i32 21
  %40 = load i64, ptr %39, align 8
  %41 = sub i64 %40, %37
  store i64 %41, ptr %39, align 8
  %42 = load ptr, ptr %6, align 8
  store ptr %42, ptr %3, align 8
  store i32 1, ptr %7, align 4
  br label %43

43:                                               ; preds = %28, %10
  call void @llvm.lifetime.end.p0(i64 8, ptr %6) #11
  %44 = load ptr, ptr %3, align 8
  ret ptr %44
}

; Function Attrs: nounwind uwtable
define internal void @mkVoidAffix(ptr noundef %0, i1 noundef zeroext %1, i32 noundef %2) #0 {
  %4 = alloca ptr, align 8
  %5 = alloca i8, align 1
  %6 = alloca i32, align 4
  %7 = alloca i32, align 4
  %8 = alloca i32, align 4
  %9 = alloca i32, align 4
  %10 = alloca i32, align 4
  %11 = alloca ptr, align 8
  %12 = alloca i32, align 4
  store ptr %0, ptr %4, align 8
  %13 = zext i1 %1 to i8
  store i8 %13, ptr %5, align 1
  store i32 %2, ptr %6, align 4
  call void @llvm.lifetime.start.p0(i64 4, ptr %7) #11
  call void @llvm.lifetime.start.p0(i64 4, ptr %8) #11
  store i32 0, ptr %8, align 4
  call void @llvm.lifetime.start.p0(i64 4, ptr %9) #11
  %14 = load i8, ptr %5, align 1, !range !12, !noundef !13
  %15 = trunc i8 %14 to i1
  br i1 %15, label %16, label %18

16:                                               ; preds = %3
  %17 = load i32, ptr %6, align 4
  br label %19

18:                                               ; preds = %3
  br label %19

19:                                               ; preds = %18, %16
  %20 = phi i32 [ %17, %16 ], [ 0, %18 ]
  store i32 %20, ptr %9, align 4
  call void @llvm.lifetime.start.p0(i64 4, ptr %10) #11
  %21 = load i8, ptr %5, align 1, !range !12, !noundef !13
  %22 = trunc i8 %21 to i1
  br i1 %22, label %23, label %27

23:                                               ; preds = %19
  %24 = load ptr, ptr %4, align 8
  %25 = getelementptr inbounds nuw %struct.IspellDict, ptr %24, i32 0, i32 1
  %26 = load i32, ptr %25, align 4
  br label %29

27:                                               ; preds = %19
  %28 = load i32, ptr %6, align 4
  br label %29

29:                                               ; preds = %27, %23
  %30 = phi i32 [ %26, %23 ], [ %28, %27 ]
  store i32 %30, ptr %10, align 4
  call void @llvm.lifetime.start.p0(i64 8, ptr %11) #11
  %31 = call ptr @palloc0(i64 noundef 32)
  store ptr %31, ptr %11, align 8
  %32 = load ptr, ptr %11, align 8
  %33 = load i32, ptr %32, align 8
  %34 = and i32 %33, 1
  %35 = or i32 %34, 2
  store i32 %35, ptr %32, align 8
  %36 = load ptr, ptr %11, align 8
  %37 = load i32, ptr %36, align 8
  %38 = and i32 %37, -2
  %39 = or i32 %38, 1
  store i32 %39, ptr %36, align 8
  %40 = load i8, ptr %5, align 1, !range !12, !noundef !13
  %41 = trunc i8 %40 to i1
  br i1 %41, label %42, label %53

42:                                               ; preds = %29
  %43 = load ptr, ptr %4, align 8
  %44 = getelementptr inbounds nuw %struct.IspellDict, ptr %43, i32 0, i32 3
  %45 = load ptr, ptr %44, align 8
  %46 = load ptr, ptr %11, align 8
  %47 = getelementptr inbounds nuw %struct.AffixNode, ptr %46, i32 0, i32 1
  %48 = getelementptr inbounds [0 x %struct.AffixNodeData], ptr %47, i64 0, i64 0
  %49 = getelementptr inbounds nuw %struct.AffixNodeData, ptr %48, i32 0, i32 2
  store ptr %45, ptr %49, align 8
  %50 = load ptr, ptr %11, align 8
  %51 = load ptr, ptr %4, align 8
  %52 = getelementptr inbounds nuw %struct.IspellDict, ptr %51, i32 0, i32 3
  store ptr %50, ptr %52, align 8
  br label %64

53:                                               ; preds = %29
  %54 = load ptr, ptr %4, align 8
  %55 = getelementptr inbounds nuw %struct.IspellDict, ptr %54, i32 0, i32 4
  %56 = load ptr, ptr %55, align 8
  %57 = load ptr, ptr %11, align 8
  %58 = getelementptr inbounds nuw %struct.AffixNode, ptr %57, i32 0, i32 1
  %59 = getelementptr inbounds [0 x %struct.AffixNodeData], ptr %58, i64 0, i64 0
  %60 = getelementptr inbounds nuw %struct.AffixNodeData, ptr %59, i32 0, i32 2
  store ptr %56, ptr %60, align 8
  %61 = load ptr, ptr %11, align 8
  %62 = load ptr, ptr %4, align 8
  %63 = getelementptr inbounds nuw %struct.IspellDict, ptr %62, i32 0, i32 4
  store ptr %61, ptr %63, align 8
  br label %64

64:                                               ; preds = %53, %42
  %65 = load i32, ptr %9, align 4
  store i32 %65, ptr %7, align 4
  br label %66

66:                                               ; preds = %86, %64
  %67 = load i32, ptr %7, align 4
  %68 = load i32, ptr %10, align 4
  %69 = icmp slt i32 %67, %68
  br i1 %69, label %70, label %89

70:                                               ; preds = %66
  %71 = load ptr, ptr %4, align 8
  %72 = getelementptr inbounds nuw %struct.IspellDict, ptr %71, i32 0, i32 2
  %73 = load ptr, ptr %72, align 8
  %74 = load i32, ptr %7, align 4
  %75 = sext i32 %74 to i64
  %76 = getelementptr inbounds %struct.aff_struct, ptr %73, i64 %75
  %77 = getelementptr inbounds nuw %struct.aff_struct, ptr %76, i32 0, i32 1
  %78 = load i32, ptr %77, align 8
  %79 = lshr i32 %78, 10
  %80 = and i32 %79, 16383
  %81 = icmp eq i32 %80, 0
  br i1 %81, label %82, label %85

82:                                               ; preds = %70
  %83 = load i32, ptr %8, align 4
  %84 = add i32 %83, 1
  store i32 %84, ptr %8, align 4
  br label %85

85:                                               ; preds = %82, %70
  br label %86

86:                                               ; preds = %85
  %87 = load i32, ptr %7, align 4
  %88 = add i32 %87, 1
  store i32 %88, ptr %7, align 4
  br label %66, !llvm.loop !32

89:                                               ; preds = %66
  %90 = load i32, ptr %8, align 4
  %91 = icmp eq i32 %90, 0
  br i1 %91, label %92, label %93

92:                                               ; preds = %89
  store i32 1, ptr %12, align 4
  br label %151

93:                                               ; preds = %89
  %94 = load ptr, ptr %4, align 8
  %95 = load i32, ptr %8, align 4
  %96 = sext i32 %95 to i64
  %97 = mul i64 8, %96
  %98 = call ptr @compact_palloc0(ptr noundef %94, i64 noundef %97)
  %99 = load ptr, ptr %11, align 8
  %100 = getelementptr inbounds nuw %struct.AffixNode, ptr %99, i32 0, i32 1
  %101 = getelementptr inbounds [0 x %struct.AffixNodeData], ptr %100, i64 0, i64 0
  %102 = getelementptr inbounds nuw %struct.AffixNodeData, ptr %101, i32 0, i32 1
  store ptr %98, ptr %102, align 8
  %103 = load i32, ptr %8, align 4
  %104 = load ptr, ptr %11, align 8
  %105 = getelementptr inbounds nuw %struct.AffixNode, ptr %104, i32 0, i32 1
  %106 = getelementptr inbounds [0 x %struct.AffixNodeData], ptr %105, i64 0, i64 0
  %107 = load i32, ptr %106, align 8
  %108 = and i32 %103, 16777215
  %109 = shl i32 %108, 8
  %110 = and i32 %107, 255
  %111 = or i32 %110, %109
  store i32 %111, ptr %106, align 8
  store i32 0, ptr %8, align 4
  %112 = load i32, ptr %9, align 4
  store i32 %112, ptr %7, align 4
  br label %113

113:                                              ; preds = %147, %93
  %114 = load i32, ptr %7, align 4
  %115 = load i32, ptr %10, align 4
  %116 = icmp slt i32 %114, %115
  br i1 %116, label %117, label %150

117:                                              ; preds = %113
  %118 = load ptr, ptr %4, align 8
  %119 = getelementptr inbounds nuw %struct.IspellDict, ptr %118, i32 0, i32 2
  %120 = load ptr, ptr %119, align 8
  %121 = load i32, ptr %7, align 4
  %122 = sext i32 %121 to i64
  %123 = getelementptr inbounds %struct.aff_struct, ptr %120, i64 %122
  %124 = getelementptr inbounds nuw %struct.aff_struct, ptr %123, i32 0, i32 1
  %125 = load i32, ptr %124, align 8
  %126 = lshr i32 %125, 10
  %127 = and i32 %126, 16383
  %128 = icmp eq i32 %127, 0
  br i1 %128, label %129, label %146

129:                                              ; preds = %117
  %130 = load ptr, ptr %4, align 8
  %131 = getelementptr inbounds nuw %struct.IspellDict, ptr %130, i32 0, i32 2
  %132 = load ptr, ptr %131, align 8
  %133 = load i32, ptr %7, align 4
  %134 = sext i32 %133 to i64
  %135 = getelementptr inbounds %struct.aff_struct, ptr %132, i64 %134
  %136 = load ptr, ptr %11, align 8
  %137 = getelementptr inbounds nuw %struct.AffixNode, ptr %136, i32 0, i32 1
  %138 = getelementptr inbounds [0 x %struct.AffixNodeData], ptr %137, i64 0, i64 0
  %139 = getelementptr inbounds nuw %struct.AffixNodeData, ptr %138, i32 0, i32 1
  %140 = load ptr, ptr %139, align 8
  %141 = load i32, ptr %8, align 4
  %142 = sext i32 %141 to i64
  %143 = getelementptr inbounds ptr, ptr %140, i64 %142
  store ptr %135, ptr %143, align 8
  %144 = load i32, ptr %8, align 4
  %145 = add i32 %144, 1
  store i32 %145, ptr %8, align 4
  br label %146

146:                                              ; preds = %129, %117
  br label %147

147:                                              ; preds = %146
  %148 = load i32, ptr %7, align 4
  %149 = add i32 %148, 1
  store i32 %149, ptr %7, align 4
  br label %113, !llvm.loop !33

150:                                              ; preds = %113
  store i32 0, ptr %12, align 4
  br label %151

151:                                              ; preds = %150, %92
  call void @llvm.lifetime.end.p0(i64 8, ptr %11) #11
  call void @llvm.lifetime.end.p0(i64 4, ptr %10) #11
  call void @llvm.lifetime.end.p0(i64 4, ptr %9) #11
  call void @llvm.lifetime.end.p0(i64 4, ptr %8) #11
  call void @llvm.lifetime.end.p0(i64 4, ptr %7) #11
  %152 = load i32, ptr %12, align 4
  switch i32 %152, label %154 [
    i32 0, label %153
    i32 1, label %153
  ]

153:                                              ; preds = %151, %151
  ret void

154:                                              ; preds = %151
  unreachable
}