; Function Attrs: nounwind uwtable
define internal fastcc void @mkVoidAffix(ptr noundef captures(none) %0, i1 noundef zeroext %1, i32 noundef %2) unnamed_addr #0 {
  %4 = select i1 %1, i32 %2, i32 0
  br i1 %1, label %5, label %8

5:                                                ; preds = %3
  %6 = getelementptr inbounds nuw i8, ptr %0, i64 4
  %7 = load i32, ptr %6, align 4
  br label %8

8:                                                ; preds = %3, %5
  %.sink59 = phi i64 [ 16, %5 ], [ 24, %3 ]
  %9 = phi i32 [ %7, %5 ], [ %2, %3 ]
  %10 = tail call ptr @palloc0(i64 noundef 32) #14
  store i32 3, ptr %10, align 8
  %11 = getelementptr inbounds nuw i8, ptr %0, i64 %.sink59
  %12 = load ptr, ptr %11, align 8
  %13 = getelementptr inbounds nuw i8, ptr %10, i64 24
  store ptr %12, ptr %13, align 8
  store ptr %10, ptr %11, align 8
  %14 = icmp slt i32 %4, %9
  br i1 %14, label %.lr.ph, label %.loopexit

.lr.ph:                                           ; preds = %8
  %15 = getelementptr inbounds nuw i8, ptr %0, i64 8
  %16 = load ptr, ptr %15, align 8
  %17 = sext i32 %4 to i64
  %wide.trip.count = sext i32 %9 to i64
  br label %18

18:                                               ; preds = %.lr.ph, %18
  %indvars.iv = phi i64 [ %17, %.lr.ph ], [ %indvars.iv.next, %18 ]
  %.03942 = phi i32 [ 0, %.lr.ph ], [ %spec.select, %18 ]
  %19 = getelementptr inbounds %struct.aff_struct, ptr %16, i64 %indvars.iv, i32 1
  %20 = load i32, ptr %19, align 8
  %21 = and i32 %20, 16776192
  %22 = icmp eq i32 %21, 0
  %23 = zext i1 %22 to i32
  %spec.select = add i32 %.03942, %23
  %indvars.iv.next = add nsw i64 %indvars.iv, 1
  %exitcond.not = icmp eq i64 %indvars.iv.next, %wide.trip.count
  br i1 %exitcond.not, label %._crit_edge, label %18, !llvm.loop !35

._crit_edge:                                      ; preds = %18
  %24 = icmp eq i32 %spec.select, 0
  br i1 %24, label %.loopexit, label %25

25:                                               ; preds = %._crit_edge
  %26 = sext i32 %spec.select to i64
  %27 = shl nsw i64 %26, 3
  %28 = icmp ugt i64 %27, 1024
  br i1 %28, label %29, label %31

29:                                               ; preds = %25
  %30 = tail call ptr @palloc0(i64 noundef %27) #14
  br label %compact_palloc0.exit

31:                                               ; preds = %25
  %32 = getelementptr inbounds nuw i8, ptr %0, i64 128
  %33 = load i64, ptr %32, align 8
  %34 = icmp ugt i64 %27, %33
  br i1 %34, label %35, label %._crit_edge.i

._crit_edge.i:                                    ; preds = %31
  %.phi.trans.insert.i = getelementptr inbounds nuw i8, ptr %0, i64 120
  %.pre.i = load ptr, ptr %.phi.trans.insert.i, align 8
  br label %37

35:                                               ; preds = %31
  %36 = tail call ptr @palloc0(i64 noundef 8192) #14
  br label %37

37:                                               ; preds = %35, %._crit_edge.i
  %38 = phi i64 [ %33, %._crit_edge.i ], [ 8192, %35 ]
  %39 = phi ptr [ %.pre.i, %._crit_edge.i ], [ %36, %35 ]
  %40 = getelementptr inbounds nuw i8, ptr %0, i64 120
  %41 = getelementptr inbounds nuw i8, ptr %39, i64 %27
  store ptr %41, ptr %40, align 8
  %42 = sub i64 %38, %27
  store i64 %42, ptr %32, align 8
  br label %compact_palloc0.exit

compact_palloc0.exit:                             ; preds = %29, %37
  %.0.i = phi ptr [ %30, %29 ], [ %39, %37 ]
  %43 = getelementptr inbounds nuw i8, ptr %10, i64 8
  %44 = getelementptr inbounds nuw i8, ptr %10, i64 16
  store ptr %.0.i, ptr %44, align 8
  %45 = load i32, ptr %43, align 8
  %46 = shl i32 %spec.select, 8
  %47 = and i32 %45, 255
  %48 = or disjoint i32 %47, %46
  store i32 %48, ptr %43, align 8
  %49 = getelementptr inbounds nuw i8, ptr %0, i64 8
  %50 = sext i32 %4 to i64
  %wide.trip.count51 = sext i32 %9 to i64
  br label %51

51:                                               ; preds = %compact_palloc0.exit, %63
  %indvars.iv48 = phi i64 [ %50, %compact_palloc0.exit ], [ %indvars.iv.next49, %63 ]
  %.244 = phi i32 [ 0, %compact_palloc0.exit ], [ %.3, %63 ]
  %52 = load ptr, ptr %49, align 8
  %53 = getelementptr inbounds %struct.aff_struct, ptr %52, i64 %indvars.iv48
  %54 = getelementptr inbounds nuw i8, ptr %53, i64 8
  %55 = load i32, ptr %54, align 8
  %56 = and i32 %55, 16776192
  %57 = icmp eq i32 %56, 0
  br i1 %57, label %58, label %63

58:                                               ; preds = %51
  %59 = load ptr, ptr %44, align 8
  %60 = sext i32 %.244 to i64
  %61 = getelementptr inbounds ptr, ptr %59, i64 %60
  store ptr %53, ptr %61, align 8
  %62 = add i32 %.244, 1
  br label %63

63:                                               ; preds = %51, %58
  %.3 = phi i32 [ %62, %58 ], [ %.244, %51 ]
  %indvars.iv.next49 = add nsw i64 %indvars.iv48, 1
  %exitcond52.not = icmp eq i64 %indvars.iv.next49, %wide.trip.count51
  br i1 %exitcond52.not, label %.loopexit, label %51, !llvm.loop !36

.loopexit:                                        ; preds = %63, %8, %._crit_edge
  ret void
}